(dp0
S'FGEKLOGP.dcm'
p1
(dp2
S'lvmass'
p3
cnumpy.core.multiarray
scalar
p4
(cnumpy
dtype
p5
(S'f8'
p6
I0
I1
tp7
Rp8
(I3
S'<'
p9
NNNI-1
I-1
I0
tp10
bS'HG\x86\xd6i\x909@'
p11
tp12
Rp13
ssS'Image-43.dcm'
p14
(dp15
g3
g4
(g8
S'\x94\xa2\x1f\xee76v@'
p16
tp17
Rp18
ss.